MPASM 5.68                      COINMAIN.ASM   8-7-2016  18:14:45         PAGE  1


LOC  OBJECT CODE     LINE SOURCE TEXT
  VALUE

                      00001  #include "configurationbits.h"
                      00001 #include "p18F2550.inc"
                      00001         LIST
                      00002 
                      00003 ;==========================================================================
                      00004 ; Build date : May 15 2016
                      00005 ;  MPASM PIC18F2550 processor include
                      00006 ; 
                      00007 ;  (c) Copyright 1999-2016 Microchip Technology, All rights reserved
                      00008 ;==========================================================================
                      00009 
                      01578         LIST
                      00002 
                      00003 ; CONFIG1L
                      00004   CONFIG  PLLDIV = 1            ; PLL Prescaler Selection bits (No prescale (4 MHz oscillator input driv
                            es PLL directly))
                      00005   CONFIG  CPUDIV = OSC1_PLL2    ; System Clock Postscaler Selection bits ([Primary Oscillator Src: /1][9
                            6 MHz PLL Src: /2])
                      00006   CONFIG  USBDIV = 1            ; USB Clock Selection bit (used in Full-Speed USB mode only; UCFG:FSEN =
                             1) (USB clock source comes directly from the primary oscillator block with no postscale)
                      00007 
                      00008 ; CONFIG1H
                      00009   CONFIG  FOSC = XT_XT          ; Oscillator Selection bits (XT oscillator (XT))
                      00010   CONFIG  FCMEN = OFF           ; Fail-Safe Clock Monitor Enable bit (Fail-Safe Clock Monitor disabled)
                      00011   CONFIG  IESO = OFF            ; Internal/External Oscillator Switchover bit (Oscillator Switchover mod
                            e disabled)
                      00012 
                      00013 ; CONFIG2L
                      00014   CONFIG  PWRT = OFF            ; Power-up Timer Enable bit (PWRT disabled)
                      00015   CONFIG  BOR = OFF             ; Brown-out Reset Enable bits (Brown-out Reset disabled in hardware and 
                            software)
                      00016   CONFIG  BORV = 3              ; Brown-out Reset Voltage bits (Minimum setting 2.05V)
                      00017   CONFIG  VREGEN = OFF          ; USB Voltage Regulator Enable bit (USB voltage regulator disabled)
                      00018 
                      00019 ; CONFIG2H
                      00020   CONFIG  WDT = OFF             ; Watchdog Timer Enable bit (WDT disabled (control is placed on the SWDT
                            EN bit))
                      00021   CONFIG  WDTPS = 32768         ; Watchdog Timer Postscale Select bits (1:32768)
                      00022 
                      00023 ; CONFIG3H
                      00024   CONFIG  CCP2MX = OFF          ; CCP2 MUX bit (CCP2 input/output is multiplexed with RB3)
                      00025   CONFIG  PBADEN = OFF          ; PORTB A/D Enable bit (PORTB<4:0> pins are configured as digital I/O on
                             Reset)
                      00026   CONFIG  LPT1OSC = OFF         ; Low-Power Timer 1 Oscillator Enable bit (Timer1 configured for higher 
                            power operation)
                      00027   CONFIG  MCLRE = ON            ; MCLR Pin Enable bit (MCLR pin enabled; RE3 input pin disabled)
                      00028 
                      00029 ; CONFIG4L
                      00030   CONFIG  STVREN = OFF          ; Stack Full/Underflow Reset Enable bit (Stack full/underflow will not c
                            ause Reset)
                      00031   CONFIG  LVP = OFF             ; Single-Supply ICSP Enable bit (Single-Supply ICSP disabled)
                      00032   CONFIG  XINST = OFF           ; Extended Instruction Set Enable bit (Instruction set extension and Ind
                            exed Addressing mode disabled (Legacy mode))
MPASM 5.68                      COINMAIN.ASM   8-7-2016  18:14:45         PAGE  2


LOC  OBJECT CODE     LINE SOURCE TEXT
  VALUE

                      00033 
                      00034 ; CONFIG5L
                      00035   CONFIG  CP0 = OFF             ; Code Protection bit (Block 0 (000800-001FFFh) is not code-protected)
                      00036   CONFIG  CP1 = OFF             ; Code Protection bit (Block 1 (002000-003FFFh) is not code-protected)
                      00037   CONFIG  CP2 = OFF             ; Code Protection bit (Block 2 (004000-005FFFh) is not code-protected)
                      00038   CONFIG  CP3 = OFF             ; Code Protection bit (Block 3 (006000-007FFFh) is not code-protected)
                      00039 
                      00040 ; CONFIG5H
                      00041   CONFIG  CPB = OFF             ; Boot Block Code Protection bit (Boot block (000000-0007FFh) is not cod
                            e-protected)
                      00042   CONFIG  CPD = OFF             ; Data EEPROM Code Protection bit (Data EEPROM is not code-protected)
                      00043 
                      00044 ; CONFIG6L
                      00045   CONFIG  WRT0 = OFF            ; Write Protection bit (Block 0 (000800-001FFFh) is not write-protected)
                      00046   CONFIG  WRT1 = OFF            ; Write Protection bit (Block 1 (002000-003FFFh) is not write-protected)
                      00047   CONFIG  WRT2 = OFF            ; Write Protection bit (Block 2 (004000-005FFFh) is not write-protected)
                      00048   CONFIG  WRT3 = OFF            ; Write Protection bit (Block 3 (006000-007FFFh) is not write-protected)
                      00049 
                      00050 ; CONFIG6H
                      00051   CONFIG  WRTC = OFF            ; Configuration Register Write Protection bit (Configuration registers (
                            300000-3000FFh) are not write-protected)
                      00052   CONFIG  WRTB = OFF            ; Boot Block Write Protection bit (Boot block (000000-0007FFh) is not wr
                            ite-protected)
                      00053   CONFIG  WRTD = OFF            ; Data EEPROM Write Protection bit (Data EEPROM is not write-protected)
                      00054 
                      00055 ; CONFIG7L
                      00056   CONFIG  EBTR0 = OFF           ; Table Read Protection bit (Block 0 (000800-001FFFh) is not protected f
                            rom table reads executed in other blocks)
                      00057   CONFIG  EBTR1 = OFF           ; Table Read Protection bit (Block 1 (002000-003FFFh) is not protected f
                            rom table reads executed in other blocks)
                      00058   CONFIG  EBTR2 = OFF           ; Table Read Protection bit (Block 2 (004000-005FFFh) is not protected f
                            rom table reads executed in other blocks)
                      00059   CONFIG  EBTR3 = OFF           ; Table Read Protection bit (Block 3 (006000-007FFFh) is not protected f
                            rom table reads executed in other blocks)
                      00060 
                      00061 ; CONFIG7H
                      00062   CONFIG  EBTRB = OFF           ; Boot Block Table Read Protection bit (Boot block (000000-0007FFh) is n
                            ot protected from table reads executed in other blocks)
                      00063 
                      00002  ;****************************************************PREPROCESOR DIRECTIVES LCD
                      00003      #define portsAsDigital 0x0F ;  Entradas digitales
                      00004     #define DATAB LATB ; D0-D7
                      00005     #define RS LATA,0
                      00006     #define E  LATA,1
                      00007     #define CLEARSCREEN 0x01
                      00008     #define DISPLAYON 0x0C
                      00009     #define DISPLAYOFF 0x0A
                      00010     #define FIRSTLINE 0x80
                      00011     #define FIRST4LINE 0x84
                      00012     #define SECONDLINE 0xC0
                      00013     #define THIRDLINE 0x94
                      00014     #define FOURTHLINE 0xD4
                      00015     #define MODE8BIT5x8M 0x38
MPASM 5.68                      COINMAIN.ASM   8-7-2016  18:14:45         PAGE  3


LOC  OBJECT CODE     LINE SOURCE TEXT
  VALUE

                      00016     #define SIGNPESOS  0x24
                      00017     
                      00018  ;***************************************PREPROCESOR DIRECTIVES LEDS AND BUTTONS
                      00019  #define Pulsador1 PORTB,0
                      00020  #define Pulsador2 PORTB,1
                      00021  #define Pulsador3 PORTB,2 
                      00022  #define Red LATB,3
                      00023  #define Green LATB,4
                      00024  #define Blue LATB,5
                      00025  #define LED1 LATA,3
                      00026  #define LED2 LATA,4
                      00027  #define LED3 LATA,2
                      00028  #define portasdigital 0x0F
                      00029  #define T3LED b'00111000'; COLORS
                      00030  
                      00031  ;********************************************PREPROCESOR DIRECTIVES FOR CAPTURE
                      00032 
                      00033  
                      00034 
                      00035     CBLOCK 0x60
  00000060            00036     delayvar:3
  00000063            00037     blink ; number of times of blinking of a led
  00000064            00038     buttonPushed ; button that has been pushed
  00000065            00039     Tcoin ; total acumulate coins
  00000066            00040     dTcoin ; tens of the total coin ingresed
  00000067            00041     uTcoin ; units of the total coin ingresed
  00000068            00042     FLAG  ; if it has been ingresed a coin 
  00000069            00043     FLAG2 ; flag if it has been produced a interrupt
  0000006A            00044     time
  0000006B            00045     utime
  0000006C            00046     ttime
                      00047     ENDC
                      00048     
                      00049     org 0
000000 EF?? F???      00050     goto main
                      00051     org 8
000008 EF?? F???      00052     goto CCPISR
                      00053     
00000C                00054 main:
00000C EC?? F???      00055     call initialconfigLCD ; get ready MCU to send data to display
000010 EC?? F???      00056     call setLCDup ; initial configuration for LCD    
000014 EC?? F???      00057     call LCDCover ;Main Cover
000018 EC?? F???      00058     call initccp ; initialize interruption for CCP
00001C EC?? F???      00059     call LEDsRed ; initial configuration for use LEDs 
                      00060     ;**** Here must be there the code initializate the interruption TO CALL READ BUTTON
                      00061     ;call readbutton ;
000020                00062 mainInsertC: 
000020 EC?? F???      00063     call LCDInsertC ;Insert a Coin
000024 0E50           00064     movlw 0x50 
000026 EC?? F???      00065     call delayW0ms ;170ms delay
00002A EC?? F???      00066     call LCDNInsertC
00002E 6765           00067     tstfsz Tcoin 
000030 D???           00068     bra choosebank ; It has been added a coin 
MPASM 5.68                      COINMAIN.ASM   8-7-2016  18:14:45         PAGE  4


LOC  OBJECT CODE     LINE SOURCE TEXT
  VALUE

000032 D???           00069     bra mainInsertC
                      00070     ;'initial config' mostrar en lcd el dinero que se ha ingresado=TIME,  seleccione el banco que desea 
                            utilizar 1  2   3 
000034 D???           00071     bra main
                      00072     
000036                00073 choosebank: ;display and shows the messages when a coin has been ingresed
000036 EC?? F???      00074     call LCDBank ; shows a message
00003A EC?? F???      00075     call separateC ; separate a number
00003E EC?? F???      00076     call showMoney
000042 EC?? F???      00077     call LEDsGreen
000046 EC?? F???      00078     call readbutton
                      00079     ;call send data to servo
00004A 6B65           00080     clrf Tcoin ; esta linea va en la anterior subrutina
00004C 6B68           00081     clrf FLAG
                      00082    ; goto $
00004E 0012           00083     return
                      00084 ;****************************Separation of units and tens of the count subrutine
000050                00085 separateC:
000050 6B67           00086     clrf uTcoin
000052 6B66           00087     clrf dTcoin
000054 5165           00088     movf Tcoin,W
000056 6F67           00089     movwf uTcoin
000058 0E09           00090 se1:    movlw 0x09
00005A 6567           00091     cpfsgt uTcoin
00005C 0012           00092     return 
00005E D???           00093     bra greater9
                      00094        
000060                00095 greater9: ;-------------------------if the total count is greater than 1000    
000060 0E0A           00096     movlw 0x0A
000062 5F67           00097     subwf uTcoin,F
000064 2B66           00098     incf dTcoin,F
000066 D???           00099     bra se1
                      00100 ;****************************************show the money subrutine
000068                00101 showMoney:
000068 6B69           00102     clrf FLAG2
00006A EC?? F???      00103     call dirnum
00006E 0E84           00104     movlw FIRST4LINE
000070 EC?? F???      00105     call command
000074 0E24           00106     movlw SIGNPESOS
000076 EC?? F???      00107     call pdata
00007A 6766           00108     tstfsz dTcoin
00007C EC?? F???      00109     call showd ;show tens
000080 EC?? F???      00110     call dirnum ; point numbers
000084 EC?? F???      00111     call showu ;show units
                      00112     
000088 0E30           00113     movlw '0'
00008A EC?? F???      00114     call pdata
00008E 0E30           00115     movlw '0'
000090 EC?? F???      00116     call pdata
000094 0E20           00117     movlw ' '
000096 EC?? F???      00118     call pdata
00009A 0E20           00119     movlw ' '
00009C EC?? F???      00120     call pdata
MPASM 5.68                      COINMAIN.ASM   8-7-2016  18:14:45         PAGE  5


LOC  OBJECT CODE     LINE SOURCE TEXT
  VALUE

0000A0 0E20           00121     movlw ' '
0000A2 EC?? F???      00122     call pdata
                      00123     
0000A6 0E05           00124     movlw 0x05
0000A8 0365           00125     mulwf Tcoin
0000AA CFF3 F06A      00126     movff PRODL,time ; calc the product
0000AE EC?? F???      00127     call separateT
0000B2 EC?? F???      00128     call dirnum ; point numbers
0000B6 516C           00129     movf ttime,W
0000B8 EC?? F???      00130     call showdt ;show tens
0000BC 516B           00131     movf utime,W
0000BE EC?? F???      00132     call dirnum ; point numbers
0000C2 EC?? F???      00133     call showut ;show units
0000C6 0E6D           00134     movlw 'm'
0000C8 EC?? F???      00135     call pdata
0000CC 0E69           00136     movlw 'i'
0000CE EC?? F???      00137     call pdata
0000D2 0E6E           00138     movlw 'n'
0000D4 EC?? F???      00139     call pdata
0000D8 0012           00140     return
                      00141 
0000DA                00142 separateT:
0000DA 6B6B           00143     clrf utime
0000DC 6B6C           00144     clrf ttime
0000DE C06A F06B      00145     movff time,utime
0000E2 0E09           00146 sep1:    movlw 0x09
0000E4 656B           00147     cpfsgt utime
0000E6 0012           00148     return 
0000E8 D???           00149     bra greater9t
                      00150        
0000EA                00151 greater9t: ;-------------------------if the total count is greater than 1000    
0000EA 0E0A           00152     movlw 0x0A
0000EC 5F6B           00153     subwf utime,F
0000EE 2B6C           00154     incf ttime,F
0000F0 D???           00155     bra sep1
                      00156     
0000F2                00157 showd:  
0000F2 5166           00158     movf dTcoin,W ;decenas
0000F4                00159 showdt:    
0000F4 26F6           00160     addwf TBLPTRL
0000F6 B0D8           00161     btfsc STATUS,C
0000F8 2AF7           00162     incf TBLPTRH,F
0000FA EC?? F???      00163     call show1
0000FE 0012           00164     return
000100                00165 showu:    
000100 5167           00166     movf uTcoin,W ;decenas
000102                00167 showut:    
000102 26F6           00168     addwf TBLPTRL
000104 B0D8           00169     btfsc STATUS,C
000106 2AF7           00170     incf TBLPTRH,F
000108 EC?? F???      00171     call show1
00010C 0012           00172     return
00010E                00173 show1:
MPASM 5.68                      COINMAIN.ASM   8-7-2016  18:14:45         PAGE  6


LOC  OBJECT CODE     LINE SOURCE TEXT
  VALUE

00010E 0008           00174     TBLRD* ;move de data to TABLAT
000110 50F5           00175     movf TABLAT,W
000112 EC?? F???      00176     call pdata
000116 0012           00177     return
                      00178     
                      00179 ;****************************subrutien to point direction numbers
000118                00180 dirnum:    
000118 0E??           00181     movlw low ncoin
00011A 6EF6           00182     movwf TBLPTRL
00011C 0E??           00183     movlw high ncoin
00011E 6EF7           00184     movwf TBLPTRH
000120 0E??           00185     movlw upper ncoin
000122 6EF8           00186     movwf TBLPTRU
000124 0012           00187     return
                      00188 ;***************************************************** READING BUTTONS SUBRUTINE    
000126                00189 readbutton:
000126 6968           00190     setf FLAG ; To indicate that has been ingresed a coin
000128 0E0A           00191     movlw 0x0A
00012A 6F63           00192     movwf blink ; init var blink
00012C EC?? F???      00193     call read1 ; return the number of the button pushed
000130 6A93           00194     clrf TRISB ; data direction
000132 6F64           00195     movwf buttonPushed ; save the return var in this. According to the bit 
000134 0E38           00196     movlw T3LED    
000136 6E8A           00197     movwf LATB ;LEDsOFF 'colors'A
000138 6A89           00198     clrf LATA ;OFF Anode
00013A B164           00199     btfsc buttonPushed,0 ;test if button 1 has been pushed
00013C 8689           00200     bsf LED1
00013E B364           00201     btfsc buttonPushed,1 ;test if button 2 has been pushed
000140 8889           00202     bsf LED2
000142 B564           00203     btfsc buttonPushed,2 ;test if button 3 has been pushed
000144 8489           00204     bsf LED3
000146 7A8A           00205 read2:    btg Blue ;blink the LED that represent the button that has been pushed
000148 0E1E           00206     movlw 0x1E
00014A EC?? F???      00207     call delayW0ms
00014E 2F63           00208     decfsz blink
000150 D???           00209     bra read2
000152 EC?? F???      00210     call targetbank
000156 0E64           00211     movlw d'100' ;Show the message for 1s
000158 EC?? F???      00212     call delayW0ms
00015C EC?? F???      00213     call showthanks
000160 0E64           00214     movlw d'100' ;Show the message for 1s
000162 EC?? F???      00215     call delayW0ms
000166 0E38           00216     movlw T3LED 
000168 6E8A           00217     movwf LATB ;turn off leds 'Colors'
00016A 8689           00218     bsf LED1 ;turn on LEDs of red color
00016C 8889           00219     bsf LED2
00016E 8489           00220     bsf LED3
000170 968A           00221     bcf Red
000172 0012           00222     return    
000174                00223 read1:;--------------------------;--------------------------This won't end until one button has been pus
                            hed
000174 AF69           00224     btfss FLAG2,7 ; 7 JAJA LOL XD
000176 D???           00225     bra rr1
MPASM 5.68                      COINMAIN.ASM   8-7-2016  18:14:45         PAGE  7


LOC  OBJECT CODE     LINE SOURCE TEXT
  VALUE

000178 6A93           00226     clrf TRISB
00017A EC?? F???      00227     call separateC 
00017E EC?? F???      00228     call showMoney
000182 0E07           00229     movlw b'00000111'                                 ;
000184 6E93           00230     movwf TRISB ; setting data direction of PORTB     --~!
000186 EC?? F???      00231     call LEDsGreen
00018A                00232 rr1:   
00018A B081           00233     btfsc Pulsador1 
00018C 0C01           00234     retlw 1
00018E B281           00235     btfsc Pulsador2
000190 0C02           00236     retlw 2
000192 B481           00237     btfsc Pulsador3
000194 0C04           00238     retlw 4
000196 D???           00239     bra read1
                      00240 ;***************************************************** GO TO THE BANK X
000198                00241 targetbank:
000198 0E01           00242     movlw CLEARSCREEN
00019A EC?? F???      00243     call command
00019E 0E94           00244     movlw THIRDLINE
0001A0 EC?? F???      00245     call command
0001A4 0E??           00246     movlw low msg6
0001A6 6EF6           00247     movwf TBLPTRL
0001A8 0E??           00248     movlw high msg6
0001AA 6EF7           00249     movwf TBLPTRH
0001AC 0E??           00250     movlw upper msg6
0001AE 6EF8           00251     movwf TBLPTRU
0001B0 EC?? F???      00252     call LCD1
0001B4 EC?? F???      00253     call banknumber
0001B8 EC?? F???      00254     call pdata
0001BC 0012           00255     return
                      00256 
0001BE                00257 banknumber:    
0001BE B164           00258     btfsc buttonPushed,0
0001C0 0C31           00259     retlw '1'
0001C2 B364           00260     btfsc buttonPushed,1
0001C4 0C32           00261     retlw '2'
0001C6 B564           00262     btfsc buttonPushed,2
0001C8 0C33           00263     retlw '3'
0001CA 0012           00264     return 
                      00265     
                      00266 ;*******************************************SHOW THANKS SUBRUTINE
0001CC                00267 showthanks:
0001CC 0E94           00268     movlw THIRDLINE
0001CE EC?? F???      00269     call command
0001D2 0E??           00270     movlw low msg7
0001D4 6EF6           00271     movwf TBLPTRL
0001D6 0E??           00272     movlw high msg7
0001D8 6EF7           00273     movwf TBLPTRH
0001DA 0E??           00274     movlw upper msg7
0001DC 6EF8           00275     movwf TBLPTRU
0001DE EC?? F???      00276     call LCD1
0001E2 0012           00277     return
                      00278 ;****************************** INITIAL CONFIGURATION LEDs AND BUTTONS SUBRUTINE   
MPASM 5.68                      COINMAIN.ASM   8-7-2016  18:14:45         PAGE  8


LOC  OBJECT CODE     LINE SOURCE TEXT
  VALUE

0001E4                00279 LEDsRed:
                      00280     ;clrf LATA ; setting initial value of LATA
0001E4 0E38           00281     movlw T3LED
0001E6 6E8A           00282     movwf LATB ;LEDsOFF
0001E8 8689           00283     bsf LED1
0001EA 8889           00284     bsf LED2
0001EC 8489           00285     bsf LED3
0001EE 968A           00286     bcf Red ; Turn On the LEDs in RED COLOR
0001F0 0012           00287     return
                      00288 
0001F2                00289 LEDsGreen:
0001F2 6A89           00290     clrf LATA ; setting initial value of LATA
0001F4 0E38           00291     movlw T3LED
0001F6 6E8A           00292     movwf LATB ;LEDsOFF
0001F8 8689           00293     bsf LED1
0001FA 8889           00294     bsf LED2
0001FC 8489           00295     bsf LED3
0001FE 988A           00296     bcf Green ; Turn On the LEDs in RED COLOR
000200 0012           00297     return    
                      00298     
                      00299 ;****************************************************************LCD SUBRUOTINES     
000202                00300 enablepulse: ;-------------------------------------For Latching data in the LCD 
000202 8289           00301     bsf E ;Rising Edge
000204 0000           00302     nop
000206 9289           00303     bcf E ;Falling Edge
000208 0012           00304     return 
                      00305     
00020A                00306 command:;---------------------------------------------------;-------------------------------------------
                            --------For execute commands
00020A 6E8A           00307     movwf DATAB
00020C 9089           00308     bcf RS
00020E EC?? F???      00309     call enablepulse ;To latch data 
000212 0E01           00310     movlw 0x01 
000214 EC?? F???      00311     call delayW0ms ;Delay for 20ms    
000218 0012           00312     return
                      00313 
00021A                00314 pdata:;----------------------------------------------------;--------------------------------------------
                            --------For print data in LCD
00021A 6E8A           00315     movwf DATAB
00021C 8089           00316     bsf RS
00021E EC?? F???      00317     call enablepulse ;To latch data 
000222 0E01           00318     movlw 0x01 
000224 EC?? F???      00319     call delayW0ms ;Delay for 20ms  
000228 0012           00320     return
                      00321 
00022A                00322 setLCDup:;--------------------------------------------------;-------------------------------------------
                            -------For Initializate LCD    
00022A 0E02           00323     movlw 0x02
00022C EC?? F???      00324     call delayW0ms ; Wait 10ms for Start up of LCD
000230 0E??           00325     movlw low ctrlcd ;To load the address 0x000100
000232 6EF6           00326     movwf TBLPTRL
000234 0E??           00327     movlw high ctrlcd
000236 6EF7           00328     movwf TBLPTRH
MPASM 5.68                      COINMAIN.ASM   8-7-2016  18:14:45         PAGE  9


LOC  OBJECT CODE     LINE SOURCE TEXT
  VALUE

000238 0E??           00329     movlw upper ctrlcd
00023A 6EF8           00330     movwf TBLPTRU
                      00331 
00023C 0009           00332 set1:    TBLRD*+
00023E 50F5           00333     movf TABLAT,W   
000240 B4D8           00334     btfsc  STATUS,Z 
000242 0012           00335     return
000244 EC?? F???      00336     call command ;execute the command
000248 D???           00337     bra set1
                      00338     
                      00339 ;***************************************SET UP AND INITIALIZATION MCU SUBROUTINE     
00024A                00340 initialconfigLCD: 
00024A 0E0F           00341     movlw portsAsDigital
00024C 6EC1           00342     movwf ADCON1 ;Ports as digital instead of analogic
00024E 6A92           00343     clrf TRISA  ;PortA as digital output
000250 6A89           00344     clrf LATA  ;Initializing PortA = '0'
000252 6A93           00345     clrf TRISB ;PortB as digital output 
000254 6A8A           00346     clrf LATB ;Initializing PortB 
000256 0E04           00347     movlw b'00000100'
000258 6E94           00348     movwf TRISC ; data direction PortC
00025A 6A8B           00349     clrf LATC
00025C 0012           00350     return 
                      00351     
                      00352 ;****************************************************************INITIAL MESSAGE    
00025E                00353 LCDCover:   
                      00354     ;*-------------------Show Welcome Line 1
00025E 0E??           00355     movlw low msg1
000260 6EF6           00356     movwf TBLPTRL
000262 0E??           00357     movlw high msg1
000264 6EF7           00358     movwf TBLPTRH
000266 0E??           00359     movlw upper msg1
000268 6EF8           00360     movwf TBLPTRU
00026A EC?? F???      00361     call LCD1
00026E 0012           00362     return
                      00363     
                      00364     ;*------------------Show  Please insert a coin Line 3
000270                00365 LCDInsertC:
000270 0E94           00366     movlw THIRDLINE ;move to the third line
000272 EC?? F???      00367     call command
                      00368     
000276 0E??           00369     movlw low msg2
000278 6EF6           00370     movwf TBLPTRL
00027A 0E??           00371     movlw high msg2
00027C 6EF7           00372     movwf TBLPTRH
00027E 0E??           00373     movlw upper msg2
000280 6EF8           00374     movwf TBLPTRU
000282 EC?? F???      00375     call LCD1
000286 0012           00376     return
                      00377     
000288                00378 LCDNInsertC:
000288 0E94           00379     movlw THIRDLINE ;move to the third line
00028A EC?? F???      00380     call command
                      00381     
MPASM 5.68                      COINMAIN.ASM   8-7-2016  18:14:45         PAGE 10


LOC  OBJECT CODE     LINE SOURCE TEXT
  VALUE

00028E 0E??           00382     movlw low msg3
000290 6EF6           00383     movwf TBLPTRL
000292 0E??           00384     movlw high msg3
000294 6EF7           00385     movwf TBLPTRH
000296 0E??           00386     movlw upper msg3
000298 6EF8           00387     movwf TBLPTRU
00029A EC?? F???      00388     call LCD1
00029E 0012           00389     return
                      00390 
0002A0                00391 LCDBank:
0002A0 0E94           00392     movlw THIRDLINE ;move to the third line
0002A2 EC?? F???      00393     call command
                      00394     
0002A6 0E??           00395     movlw low msg4
0002A8 6EF6           00396     movwf TBLPTRL
0002AA 0E??           00397     movlw high msg4
0002AC 6EF7           00398     movwf TBLPTRH
0002AE 0E??           00399     movlw upper msg4
0002B0 6EF8           00400     movwf TBLPTRU
0002B2 EC?? F???      00401     call LCD1
                      00402     
0002B6 0ED4           00403     movlw FOURTHLINE ;move to the third line
0002B8 EC?? F???      00404     call command
                      00405     
0002BC 0E??           00406     movlw low msg5
0002BE 6EF6           00407     movwf TBLPTRL
0002C0 0E??           00408     movlw high msg5
0002C2 6EF7           00409     movwf TBLPTRH
0002C4 0E??           00410     movlw upper msg5
0002C6 6EF8           00411     movwf TBLPTRU
0002C8 EC?? F???      00412     call LCD1
0002CC 0012           00413     return 
                      00414     
0002CE 0009           00415 LCD1: tblrd*+
0002D0 50F5           00416     movf TABLAT,W
0002D2 B4D8           00417     btfsc STATUS,Z
0002D4 0012           00418     return
0002D6 EC?? F???      00419     call pdata 
0002DA D???           00420     bra LCD1
                      00421 ;*************************************INITIAL CONFIGURATION CCP MODULE SUBRUTINE
0002DC                00422 initccp:
0002DC 0E04           00423     movlw 0x04 ;capture mode, falling edge
0002DE 6EBD           00424     movwf CCP1CON 
0002E0 6AB1           00425     clrf T3CON
0002E2 8494           00426     bsf TRISC,RC2 ; CCP1 as Input 
0002E4 949E           00427     bcf PIR1,CCP1IF
0002E6 849D           00428     bsf PIE1,CCP1IE; Enabling interrupt for CCP1
0002E8 8CF2           00429     bsf INTCON,PEIE; Enabling peripheral interrupts
0002EA 8EF2           00430     bsf INTCON,GIE; Enabling global interruptions
0002EC 6B65           00431     clrf Tcoin
0002EE 6B68           00432     clrf FLAG
0002F0 0012           00433     return
                      00434 ;***************************************************CCP INTERRUPT SERVICE RUTINE    
MPASM 5.68                      COINMAIN.ASM   8-7-2016  18:14:45         PAGE 11


LOC  OBJECT CODE     LINE SOURCE TEXT
  VALUE

0002F2                00435 CCPISR:
0002F2 6969           00436     setf FLAG2
0002F4 6A93           00437     clrf TRISB ; In the case of button input
0002F6 0E19           00438     movlw 0x19
0002F8 EC?? F???      00439     call delayW0ms ; 25ms delay subrutine
0002FC 949E           00440     bcf PIR1,CCP1IF
0002FE 0E19           00441     movlw 0x19
000300 EC?? F???      00442     call delayW0ms ; 25ms delay subrutine
                      00443 ;    movlw CLEARSCREEN
                      00444 ;    call command
000304 A49E           00445     btfss PIR1,CCP1IF
000306 D???           00446     bra S200 ; Coin value =500 
000308 B49E           00447     btfsc PIR1,CCP1IF
00030A D???           00448     bra S500; Coin value = 200
                      00449       
00030C                00450 S500;---------------------------------------------------------500 COIN SUBRUTINE
00030C 7C8B           00451     btg LATC,RC6
00030E 0E05           00452     movlw 0x05
000310 2765           00453     addwf Tcoin,F
000312 949E           00454     bcf PIR1,CCP1IF ; Clear Flag CCP1 Module
000314 B368           00455     btfsc FLAG,1
000316 EC?? F???      00456     call setbutton
00031A 0011           00457     retfie 1 ; restore W and Status register from shadow resgisters
                      00458     
00031C                00459 S200;---------------------------------------------------------200 COIN SUBRUTINE
00031C 7C8B           00460     btg LATC,RC6
00031E 0E02           00461     movlw 0x02
000320 2765           00462     addwf Tcoin,F
000322 949E           00463     bcf PIR1,CCP1IF ; Clear Flag CCP1 Module
000324 B368           00464     btfsc FLAG,1
000326 EC?? F???      00465     call setbutton
00032A 0011           00466     retfie 1 ;restore W and Status register from shadow registers
                      00467 
00032C                00468 setbutton:
00032C 0E07           00469     movlw b'00000111'                      
00032E 6E93           00470     movwf TRISB ; setting data direction of PORTB
000330 0012           00471     return
                      00472     
                      00473 ;***************************************************************DELAY SUBRUTINES   
000332                00474 delay10ms:  ;4MHz frecuency oscillator
000332 0E54           00475     movlw d'84'  ;A Value
000334 6F61           00476     movwf delayvar+1
000336 0E26           00477 d0:   movlw d'38' ;B Value
000338 6F60           00478     movwf delayvar  
00033A 0000           00479     nop
00033C 2F60           00480 d1:  decfsz delayvar,F
00033E D???           00481     bra d1
000340 2F61           00482     decfsz delayvar+1,F
000342 D???           00483     bra d0      
000344 0012           00484     return ;2+1+1+A[1+1+1+B+1+2B-2]+A+1+2A-2+2 => 5+A[5+3B]
                      00485     
000346                00486 delayW0ms: ;It is neccesary load a properly value in the acumulator before use this subrutine
000346 6F62           00487     movwf delayvar+2
MPASM 5.68                      COINMAIN.ASM   8-7-2016  18:14:45         PAGE 12


LOC  OBJECT CODE     LINE SOURCE TEXT
  VALUE

000348 EC?? F???      00488 d2:    call delay10ms
00034C 2F62           00489     decfsz delayvar+2,F
00034E D???           00490     bra d2
000350 0012           00491     return 
                      00492     
                      00493 ;********************************************************************DATA VECTOR
                      00494     org 0x500
000500 0C38 8001 0000 00495 ctrlcd:  db  MODE8BIT5x8M,DISPLAYON,CLEARSCREEN,FIRSTLINE,0  ;Comandos a ejecutar 
000506 2020 2020 2020 00496 msg1:    da "      WELCOME!      ",0                        
       4557 434C 4D4F 
       2145 2020 2020 
       2020 0000 
00051C 4C50 4145 4553 00497 msg2:    da "PLEASE INSERT A COIN",0    
       4920 534E 5245 
       2054 2041 4F43 
       4E49 0000 
000532 2020 2020 2020 00498 msg3:    da "                    ",0
       2020 2020 2020 
       2020 2020 2020 
       2020 0000 
000548 2020 2020 4843 00499 msg4:    da "    CHOOSE A SEAT   ",0  
       4F4F 4553 4120 
       5320 4145 2054 
       2020 0000 
00055E 2020 3120 2020 00500 msg5:    da "   1      2      3  ",0    
       2020 2020 2032 
       2020 2020 3320 
       2020 0000 
000574 4944 4952 4147 00501 msg6:    da "DIRIGASE AL BANCO:",0
       4553 4120 204C 
       4142 434E 3A4F 
       0000 
000588 3130 3332 3534 00502 ncoin:   da "0123456789",0
       3736 3938 0000 
000594 2020 2020 4720 00503 msg7:    da "     GRACIAS        ",0   
       4152 4943 5341 
       2020 2020 2020 
       2020 0000 
                      00504  END
MPASM 5.68                      COINMAIN.ASM   8-7-2016  18:14:45         PAGE 13


SYMBOL TABLE
  LABEL                             VALUE 

A                                 00000000
ABDEN                             00000000
ABDOVF                            00000007
ACCESS                            00000000
ACKDT                             00000005
ACKEN                             00000004
ACKSTAT                           00000006
ACQT0                             00000003
ACQT1                             00000004
ACQT2                             00000005
ACTVIE                            00000002
ACTVIF                            00000002
ADCON0                            00000FC2
ADCON1                            00000FC1
ADCON2                            00000FC0
ADCS0                             00000000
ADCS1                             00000001
ADCS2                             00000002
ADDEN                             00000003
ADDR0                             00000000
ADDR1                             00000001
ADDR2                             00000002
ADDR3                             00000003
ADDR4                             00000004
ADDR5                             00000005
ADDR6                             00000006
ADEN                              00000003
ADFM                              00000007
ADIE                              00000006
ADIF                              00000006
ADIP                              00000006
ADON                              00000000
ADRES                             00000FC3
ADRESH                            00000FC4
ADRESL                            00000FC3
AN0                               00000000
AN1                               00000001
AN2                               00000002
AN3                               00000003
AN4                               00000005
BANKED                            00000001
BAUDCON                           00000FB8
BAUDCTL                           00000FB8
BCLIE                             00000003
BCLIF                             00000003
BCLIP                             00000003
BF                                00000000
BGST                              00000005
BOR                               00000000
BRG16                             00000003
BRGH                              00000002
BSR                               00000FE0
BTOEE                             00000004
MPASM 5.68                      COINMAIN.ASM   8-7-2016  18:14:45         PAGE 14


SYMBOL TABLE
  LABEL                             VALUE 

BTOEF                             00000004
BTSEE                             00000007
BTSEF                             00000007
Blue                              LATB,5
C                                 00000000
C1INV                             00000004
C1OUT                             00000006
C2INV                             00000005
C2OUT                             00000007
CCP1                              00000002
CCP1AS                            00000FB6
CCP1CON                           00000FBD
CCP1DEL                           00000FB7
CCP1IE                            00000002
CCP1IF                            00000002
CCP1IP                            00000002
CCP1M0                            00000000
CCP1M1                            00000001
CCP1M2                            00000002
CCP1M3                            00000003
CCP2CON                           00000FBA
CCP2IE                            00000000
CCP2IF                            00000000
CCP2IP                            00000000
CCP2M0                            00000000
CCP2M1                            00000001
CCP2M2                            00000002
CCP2M3                            00000003
CCPISR                            000002F2
CCPR1                             00000FBE
CCPR1H                            00000FBF
CCPR1L                            00000FBE
CCPR2                             00000FBB
CCPR2H                            00000FBC
CCPR2L                            00000FBB
CFGS                              00000006
CHS0                              00000002
CHS1                              00000003
CHS2                              00000004
CHS3                              00000005
CIS                               00000003
CK                                00000006
CKE                               00000006
CKP                               00000004
CLEARSCREEN                       0x01
CM0                               00000000
CM1                               00000001
CM2                               00000002
CMCON                             00000FB4
CMIE                              00000006
CMIF                              00000006
CMIP                              00000006
CRC16EE                           00000002
MPASM 5.68                      COINMAIN.ASM   8-7-2016  18:14:45         PAGE 15


SYMBOL TABLE
  LABEL                             VALUE 

CRC16EF                           00000002
CRC5EE                            00000001
CRC5EF                            00000001
CREN                              00000004
CSRC                              00000007
CVR0                              00000000
CVR1                              00000001
CVR2                              00000002
CVR3                              00000003
CVRCON                            00000FB5
CVREF                             00000004
CVREN                             00000007
CVROE                             00000006
CVRR                              00000005
CVRSS                             00000004
D                                 00000005
DATAB                             LATB
DATA_ADDRESS                      00000005
DC                                00000001
DC1B0                             00000004
DC1B1                             00000005
DC2B0                             00000004
DC2B1                             00000005
DDRA                              TRISA
DDRB                              TRISB
DDRC                              TRISC
DDRD                              TRISD
DDRE                              TRISE
DFN8EE                            00000003
DFN8EF                            00000003
DIR                               00000002
DISPLAYOFF                        0x0A
DISPLAYON                         0x0C
DONE                              00000001
D_A                               00000005
D_NOT_A                           00000005
E                                 LATA,1
ECCP1AS                           00000FB6
ECCP1DEL                          00000FB7
ECCPAS0                           00000004
ECCPAS1                           00000005
ECCPAS2                           00000006
ECCPASE                           00000007
EEADR                             00000FA9
EECON1                            00000FA6
EECON2                            00000FA7
EEDATA                            00000FA8
EEIE                              00000004
EEIF                              00000004
EEIP                              00000004
EEPGD                             00000007
ENDP0                             00000003
ENDP1                             00000004
MPASM 5.68                      COINMAIN.ASM   8-7-2016  18:14:45         PAGE 16


SYMBOL TABLE
  LABEL                             VALUE 

ENDP2                             00000005
ENDP3                             00000006
EPCONDIS                          00000003
EPHSHK                            00000004
EPINEN                            00000001
EPOUTEN                           00000002
EPSTALL                           00000000
FAST                              00000001
FERR                              00000002
FIRST4LINE                        0x84
FIRSTLINE                         0x80
FLAG                              00000068
FLAG2                             00000069
FLTS                              00000002
FOURTHLINE                        0xD4
FREE                              00000004
FRM0                              00000000
FRM1                              00000001
FRM10                             00000002
FRM2                              00000002
FRM3                              00000003
FRM4                              00000004
FRM5                              00000005
FRM6                              00000006
FRM7                              00000007
FRM8                              00000000
FRM9                              00000001
FSEN                              00000002
FSR0                              00000000
FSR0H                             00000FEA
FSR0L                             00000FE9
FSR1                              00000001
FSR1H                             00000FE2
FSR1L                             00000FE1
FSR2                              00000002
FSR2H                             00000FDA
FSR2L                             00000FD9
GCEN                              00000007
GIE                               00000007
GIEH                              00000007
GIEL                              00000006
GIE_GIEH                          00000007
GO                                00000001
GO_DONE                           00000001
GO_NOT_DONE                       00000001
Green                             LATB,4
HLVDCON                           00000FD2
HLVDEN                            00000004
HLVDIE                            00000002
HLVDIF                            00000002
HLVDIN                            00000005
HLVDIP                            00000002
HLVDL0                            00000000
MPASM 5.68                      COINMAIN.ASM   8-7-2016  18:14:45         PAGE 17


SYMBOL TABLE
  LABEL                             VALUE 

HLVDL1                            00000001
HLVDL2                            00000002
HLVDL3                            00000003
I2C_DAT                           00000005
I2C_READ                          00000002
I2C_START                         00000003
I2C_STOP                          00000004
IDLEIE                            00000004
IDLEIF                            00000004
IDLEN                             00000007
INDF0                             00000FEF
INDF1                             00000FE7
INDF2                             00000FDF
INT0                              00000000
INT0E                             00000004
INT0F                             00000001
INT0IE                            00000004
INT0IF                            00000001
INT1                              00000001
INT1E                             00000003
INT1F                             00000000
INT1IE                            00000003
INT1IF                            00000000
INT1IP                            00000006
INT1P                             00000006
INT2                              00000002
INT2E                             00000004
INT2F                             00000001
INT2IE                            00000004
INT2IF                            00000001
INT2IP                            00000007
INT2P                             00000007
INTCON                            00000FF2
INTCON2                           00000FF1
INTCON3                           00000FF0
INTEDG0                           00000006
INTEDG1                           00000005
INTEDG2                           00000004
INTSRC                            00000007
IOFS                              00000002
IPEN                              00000007
IPR1                              00000F9F
IPR2                              00000FA2
IRCF0                             00000004
IRCF1                             00000005
IRCF2                             00000006
IRVST                             00000005
IVRST                             00000005
LATA                              00000F89
LATA0                             00000000
LATA1                             00000001
LATA2                             00000002
LATA3                             00000003
MPASM 5.68                      COINMAIN.ASM   8-7-2016  18:14:45         PAGE 18


SYMBOL TABLE
  LABEL                             VALUE 

LATA4                             00000004
LATA5                             00000005
LATA6                             00000006
LATB                              00000F8A
LATB0                             00000000
LATB1                             00000001
LATB2                             00000002
LATB3                             00000003
LATB4                             00000004
LATB5                             00000005
LATB6                             00000006
LATB7                             00000007
LATC                              00000F8B
LATC0                             00000000
LATC1                             00000001
LATC2                             00000002
LATC6                             00000006
LATC7                             00000007
LCD1                              000002CE
LCDBank                           000002A0
LCDCover                          0000025E
LCDInsertC                        00000270
LCDNInsertC                       00000288
LED1                              LATA,3
LED2                              LATA,4
LED3                              LATA,2
LEDsGreen                         000001F2
LEDsRed                           000001E4
LVDCON                            00000FD2
LVDEN                             00000004
LVDIE                             00000002
LVDIF                             00000002
LVDIN                             00000005
LVDIP                             00000002
LVDL0                             00000000
LVDL1                             00000001
LVDL2                             00000002
LVDL3                             00000003
LVV0                              00000000
LVV1                              00000001
LVV2                              00000002
LVV3                              00000003
MODE8BIT5x8M                      0x38
N                                 00000004
NOT_A                             00000005
NOT_ADDRESS                       00000005
NOT_BOR                           00000000
NOT_DONE                          00000001
NOT_IPEN                          00000007
NOT_PD                            00000002
NOT_POR                           00000001
NOT_RBPU                          00000007
NOT_RI                            00000004
MPASM 5.68                      COINMAIN.ASM   8-7-2016  18:14:45         PAGE 19


SYMBOL TABLE
  LABEL                             VALUE 

NOT_T1SYNC                        00000002
NOT_T3SYNC                        00000002
NOT_TO                            00000003
NOT_W                             00000002
NOT_WRITE                         00000002
OERR                              00000001
OSC2                              00000006
OSCCON                            00000FD3
OSCFIE                            00000007
OSCFIF                            00000007
OSCFIP                            00000007
OSCTUNE                           00000F9B
OSTS                              00000003
OV                                00000003
P                                 00000004
P1A                               00000002
PC                                00000FF9
PCFG0                             00000000
PCFG1                             00000001
PCFG2                             00000002
PCFG3                             00000003
PCL                               00000FF9
PCLATH                            00000FFA
PCLATU                            00000FFB
PD                                00000002
PEIE                              00000006
PEIE_GIEL                         00000006
PEN                               00000002
PGC                               00000006
PGD                               00000007
PGM                               00000005
PIDEE                             00000000
PIDEF                             00000000
PIE1                              00000F9D
PIE2                              00000FA0
PIR1                              00000F9E
PIR2                              00000FA1
PKTDIS                            00000004
PLUSW0                            00000FEB
PLUSW1                            00000FE3
PLUSW2                            00000FDB
POR                               00000001
PORTA                             00000F80
PORTB                             00000F81
PORTC                             00000F82
PORTE                             00000F84
POSTDEC0                          00000FED
POSTDEC1                          00000FE5
POSTDEC2                          00000FDD
POSTINC0                          00000FEE
POSTINC1                          00000FE6
POSTINC2                          00000FDE
PPB0                              00000000
MPASM 5.68                      COINMAIN.ASM   8-7-2016  18:14:45         PAGE 20


SYMBOL TABLE
  LABEL                             VALUE 

PPB1                              00000001
PPBI                              00000001
PPBRST                            00000006
PR2                               00000FCB
PREINC0                           00000FEC
PREINC1                           00000FE4
PREINC2                           00000FDC
PROD                              00000FF3
PRODH                             00000FF4
PRODL                             00000FF3
PRSEN                             00000007
PSA                               00000003
PSSAC0                            00000002
PSSAC1                            00000003
Pulsador1                         PORTB,0
Pulsador2                         PORTB,1
Pulsador3                         PORTB,2
R                                 00000002
RA0                               00000000
RA1                               00000001
RA2                               00000002
RA3                               00000003
RA4                               00000004
RA5                               00000005
RA6                               00000006
RB0                               00000000
RB1                               00000001
RB2                               00000002
RB3                               00000003
RB4                               00000004
RB5                               00000005
RB6                               00000006
RB7                               00000007
RBIE                              00000003
RBIF                              00000000
RBIP                              00000000
RBPU                              00000007
RC0                               00000000
RC1                               00000001
RC2                               00000002
RC4                               00000004
RC5                               00000005
RC6                               00000006
RC7                               00000007
RCEN                              00000003
RCIDL                             00000006
RCIE                              00000005
RCIF                              00000005
RCIP                              00000005
RCMT                              00000006
RCON                              00000FD0
RCREG                             00000FAE
RCSTA                             00000FAB
MPASM 5.68                      COINMAIN.ASM   8-7-2016  18:14:45         PAGE 21


SYMBOL TABLE
  LABEL                             VALUE 

RD                                00000000
RD16                              00000007
RE3                               00000003
READ_WRITE                        00000002
RESUME                            00000002
RI                                00000004
RS                                LATA,0
RSEN                              00000001
RX                                00000007
RX9                               00000006
RX9D                              00000000
RXDTP                             00000005
R_NOT_W                           00000002
R_W                               00000002
Red                               LATB,3
S                                 00000003
S200                              0000031C
S500                              0000030C
SBOREN                            00000006
SCKP                              00000004
SCS0                              00000000
SCS1                              00000001
SE0                               00000005
SECONDLINE                        0xC0
SEN                               00000000
SENDB                             00000003
SIGNPESOS                         0x24
SMP                               00000007
SOFIE                             00000006
SOFIF                             00000006
SPBRG                             00000FAF
SPBRGH                            00000FB0
SPEN                              00000007
SREN                              00000005
SSPADD                            00000FC8
SSPBUF                            00000FC9
SSPCON1                           00000FC6
SSPCON2                           00000FC5
SSPEN                             00000005
SSPIE                             00000003
SSPIF                             00000003
SSPIP                             00000003
SSPM0                             00000000
SSPM1                             00000001
SSPM2                             00000002
SSPM3                             00000003
SSPOV                             00000006
SSPSTAT                           00000FC7
STALLIE                           00000005
STALLIF                           00000005
STATUS                            00000FD8
STKFUL                            00000007
STKOVF                            00000007
MPASM 5.68                      COINMAIN.ASM   8-7-2016  18:14:45         PAGE 22


SYMBOL TABLE
  LABEL                             VALUE 

STKPTR                            00000FFC
STKPTR0                           00000000
STKPTR1                           00000001
STKPTR2                           00000002
STKPTR3                           00000003
STKPTR4                           00000004
STKUNF                            00000006
SUSPND                            00000001
SWDTE                             00000000
SWDTEN                            00000000
SYNC                              00000004
T08BIT                            00000006
T0CKI                             00000004
T0CON                             00000FD5
T0CS                              00000005
T0IE                              00000005
T0IF                              00000002
T0IP                              00000002
T0PS0                             00000000
T0PS1                             00000001
T0PS2                             00000002
T0SE                              00000004
T13CKI                            00000000
T1CKPS0                           00000004
T1CKPS1                           00000005
T1CON                             00000FCD
T1OSCEN                           00000003
T1OSI                             00000001
T1OSO                             00000000
T1RUN                             00000006
T1SYNC                            00000002
T2CKPS0                           00000000
T2CKPS1                           00000001
T2CON                             00000FCA
T2OUTPS0                          00000003
T2OUTPS1                          00000004
T2OUTPS2                          00000005
T2OUTPS3                          00000006
T3CCP1                            00000003
T3CCP2                            00000006
T3CKPS0                           00000004
T3CKPS1                           00000005
T3CON                             00000FB1
T3LED                             b'00111000'
T3NSYNC                           00000002
T3SYNC                            00000002
TABLAT                            00000FF5
TBLPTR                            00000FF6
TBLPTRH                           00000FF7
TBLPTRL                           00000FF6
TBLPTRU                           00000FF8
THIRDLINE                         0x94
TMR0                              00000FD6
MPASM 5.68                      COINMAIN.ASM   8-7-2016  18:14:45         PAGE 23


SYMBOL TABLE
  LABEL                             VALUE 

TMR0H                             00000FD7
TMR0IE                            00000005
TMR0IF                            00000002
TMR0IP                            00000002
TMR0L                             00000FD6
TMR0ON                            00000007
TMR1                              00000FCE
TMR1CS                            00000001
TMR1H                             00000FCF
TMR1IE                            00000000
TMR1IF                            00000000
TMR1IP                            00000000
TMR1L                             00000FCE
TMR1ON                            00000000
TMR2                              00000FCC
TMR2IE                            00000001
TMR2IF                            00000001
TMR2IP                            00000001
TMR2ON                            00000002
TMR3                              00000FB2
TMR3CS                            00000001
TMR3H                             00000FB3
TMR3IE                            00000001
TMR3IF                            00000001
TMR3IP                            00000001
TMR3L                             00000FB2
TMR3ON                            00000000
TO                                00000003
TOS                               00000FFD
TOSH                              00000FFE
TOSL                              00000FFD
TOSU                              00000FFF
TOUTPS0                           00000003
TOUTPS1                           00000004
TOUTPS2                           00000005
TOUTPS3                           00000006
TRISA                             00000F92
TRISA0                            00000000
TRISA1                            00000001
TRISA2                            00000002
TRISA3                            00000003
TRISA4                            00000004
TRISA5                            00000005
TRISA6                            00000006
TRISB                             00000F93
TRISB0                            00000000
TRISB1                            00000001
TRISB2                            00000002
TRISB3                            00000003
TRISB4                            00000004
TRISB5                            00000005
TRISB6                            00000006
TRISB7                            00000007
MPASM 5.68                      COINMAIN.ASM   8-7-2016  18:14:45         PAGE 24


SYMBOL TABLE
  LABEL                             VALUE 

TRISC                             00000F94
TRISC0                            00000000
TRISC1                            00000001
TRISC2                            00000002
TRISC6                            00000006
TRISC7                            00000007
TRMT                              00000001
TRNIE                             00000003
TRNIF                             00000003
TUN0                              00000000
TUN1                              00000001
TUN2                              00000002
TUN3                              00000003
TUN4                              00000004
TX                                00000006
TX9                               00000006
TX9D                              00000000
TXCKP                             00000004
TXEN                              00000005
TXIE                              00000004
TXIF                              00000004
TXIP                              00000004
TXREG                             00000FAD
TXSTA                             00000FAC
Tcoin                             00000065
UA                                00000001
UADDR                             00000F6E
UCFG                              00000F6F
UCON                              00000F6D
UEIE                              00000F6B
UEIR                              00000F6A
UEP0                              00000F70
UEP1                              00000F71
UEP10                             00000F7A
UEP11                             00000F7B
UEP12                             00000F7C
UEP13                             00000F7D
UEP14                             00000F7E
UEP15                             00000F7F
UEP2                              00000F72
UEP3                              00000F73
UEP4                              00000F74
UEP5                              00000F75
UEP6                              00000F76
UEP7                              00000F77
UEP8                              00000F78
UEP9                              00000F79
UERRIE                            00000001
UERRIF                            00000001
UFRM                              00000F66
UFRMH                             00000F67
UFRML                             00000F66
UIE                               00000F69
MPASM 5.68                      COINMAIN.ASM   8-7-2016  18:14:45         PAGE 25


SYMBOL TABLE
  LABEL                             VALUE 

UIR                               00000F68
UOEMON                            00000006
UPUEN                             00000004
URSTIE                            00000000
URSTIF                            00000000
USBEN                             00000003
USBIE                             00000005
USBIF                             00000005
USBIP                             00000005
USTAT                             00000F6C
UTEYE                             00000007
UTRDIS                            00000003
VCFG0                             00000004
VCFG1                             00000005
VDIRMAG                           00000007
VREFM                             00000002
VREFP                             00000003
W                                 00000000
WCOL                              00000007
WDTCON                            00000FD1
WR                                00000001
WREG                              00000FE8
WREN                              00000002
WRERR                             00000003
WUE                               00000001
Z                                 00000002
_BORV_0_2L                        000000E7
_BORV_1_2L                        000000EF
_BORV_2_2L                        000000F7
_BORV_3_2L                        000000FF
_BOR_OFF_2L                       000000F9
_BOR_ON_2L                        000000FF
_BOR_ON_ACTIVE_2L                 000000FD
_BOR_SOFT_2L                      000000FB
_CCP2MX_OFF_3H                    000000FE
_CCP2MX_ON_3H                     000000FF
_CONFIG1H                         00300001
_CONFIG1L                         00300000
_CONFIG2H                         00300003
_CONFIG2L                         00300002
_CONFIG3H                         00300005
_CONFIG4L                         00300006
_CONFIG5H                         00300009
_CONFIG5L                         00300008
_CONFIG6H                         0030000B
_CONFIG6L                         0030000A
_CONFIG7H                         0030000D
_CONFIG7L                         0030000C
_CP0_OFF_5L                       000000FF
_CP0_ON_5L                        000000FE
_CP1_OFF_5L                       000000FF
_CP1_ON_5L                        000000FD
_CP2_OFF_5L                       000000FF
MPASM 5.68                      COINMAIN.ASM   8-7-2016  18:14:45         PAGE 26


SYMBOL TABLE
  LABEL                             VALUE 

_CP2_ON_5L                        000000FB
_CP3_OFF_5L                       000000FF
_CP3_ON_5L                        000000F7
_CPB_OFF_5H                       000000FF
_CPB_ON_5H                        000000BF
_CPD_OFF_5H                       000000FF
_CPD_ON_5H                        0000007F
_CPUDIV_OSC1_PLL2_1L              000000E7
_CPUDIV_OSC2_PLL3_1L              000000EF
_CPUDIV_OSC3_PLL4_1L              000000F7
_CPUDIV_OSC4_PLL6_1L              000000FF
_DEBUG_OFF_4L                     000000FF
_DEBUG_ON_4L                      0000007F
_DEVID1                           003FFFFE
_DEVID2                           003FFFFF
_EBTR0_OFF_7L                     000000FF
_EBTR0_ON_7L                      000000FE
_EBTR1_OFF_7L                     000000FF
_EBTR1_ON_7L                      000000FD
_EBTR2_OFF_7L                     000000FF
_EBTR2_ON_7L                      000000FB
_EBTR3_OFF_7L                     000000FF
_EBTR3_ON_7L                      000000F7
_EBTRB_OFF_7H                     000000FF
_EBTRB_ON_7H                      000000BF
_FCMEN_OFF_1H                     000000BF
_FCMEN_ON_1H                      000000FF
_FOSC_ECIO_EC_1H                  000000F4
_FOSC_ECPLLIO_EC_1H               000000F6
_FOSC_ECPLL_EC_1H                 000000F7
_FOSC_EC_EC_1H                    000000F5
_FOSC_HSPLL_HS_1H                 000000FE
_FOSC_HS_1H                       000000FC
_FOSC_INTOSCIO_EC_1H              000000F8
_FOSC_INTOSC_EC_1H                000000F9
_FOSC_INTOSC_HS_1H                000000FB
_FOSC_INTOSC_XT_1H                000000FA
_FOSC_XTPLL_XT_1H                 000000F2
_FOSC_XT_XT_1H                    000000F0
_IDLOC0                           00200000
_IDLOC1                           00200001
_IDLOC2                           00200002
_IDLOC3                           00200003
_IDLOC4                           00200004
_IDLOC5                           00200005
_IDLOC6                           00200006
_IDLOC7                           00200007
_IESO_OFF_1H                      0000007F
_IESO_ON_1H                       000000FF
_LPT1OSC_OFF_3H                   000000FB
_LPT1OSC_ON_3H                    000000FF
_LVP_OFF_4L                       000000FB
_LVP_ON_4L                        000000FF
MPASM 5.68                      COINMAIN.ASM   8-7-2016  18:14:45         PAGE 27


SYMBOL TABLE
  LABEL                             VALUE 

_MCLRE_OFF_3H                     0000007F
_MCLRE_ON_3H                      000000FF
_PBADEN_OFF_3H                    000000FD
_PBADEN_ON_3H                     000000FF
_PLLDIV_10_1L                     000000FE
_PLLDIV_12_1L                     000000FF
_PLLDIV_1_1L                      000000F8
_PLLDIV_2_1L                      000000F9
_PLLDIV_3_1L                      000000FA
_PLLDIV_4_1L                      000000FB
_PLLDIV_5_1L                      000000FC
_PLLDIV_6_1L                      000000FD
_PWRT_OFF_2L                      000000FF
_PWRT_ON_2L                       000000FE
_STVREN_OFF_4L                    000000FE
_STVREN_ON_4L                     000000FF
_USBDIV_1_1L                      000000DF
_USBDIV_2_1L                      000000FF
_VREGEN_OFF_2L                    000000DF
_VREGEN_ON_2L                     000000FF
_WDTPS_1024_2H                    000000F5
_WDTPS_128_2H                     000000EF
_WDTPS_16384_2H                   000000FD
_WDTPS_16_2H                      000000E9
_WDTPS_1_2H                       000000E1
_WDTPS_2048_2H                    000000F7
_WDTPS_256_2H                     000000F1
_WDTPS_2_2H                       000000E3
_WDTPS_32768_2H                   000000FF
_WDTPS_32_2H                      000000EB
_WDTPS_4096_2H                    000000F9
_WDTPS_4_2H                       000000E5
_WDTPS_512_2H                     000000F3
_WDTPS_64_2H                      000000ED
_WDTPS_8192_2H                    000000FB
_WDTPS_8_2H                       000000E7
_WDT_OFF_2H                       000000FE
_WDT_ON_2H                        000000FF
_WRT0_OFF_6L                      000000FF
_WRT0_ON_6L                       000000FE
_WRT1_OFF_6L                      000000FF
_WRT1_ON_6L                       000000FD
_WRT2_OFF_6L                      000000FF
_WRT2_ON_6L                       000000FB
_WRT3_OFF_6L                      000000FF
_WRT3_ON_6L                       000000F7
_WRTB_OFF_6H                      000000FF
_WRTB_ON_6H                       000000BF
_WRTC_OFF_6H                      000000FF
_WRTC_ON_6H                       000000DF
_WRTD_OFF_6H                      000000FF
_WRTD_ON_6H                       0000007F
_XINST_OFF_4L                     000000BF
MPASM 5.68                      COINMAIN.ASM   8-7-2016  18:14:45         PAGE 28


SYMBOL TABLE
  LABEL                             VALUE 

_XINST_ON_4L                      000000FF
__18F2550                         00000001
banknumber                        000001BE
blink                             00000063
buttonPushed                      00000064
choosebank                        00000036
command                           0000020A
ctrlcd                            00000500
d0                                00000336
d1                                0000033C
d2                                00000348
dTcoin                            00000066
delay10ms                         00000332
delayW0ms                         00000346
delayvar                          00000060
dirnum                            00000118
enablepulse                       00000202
greater9                          00000060
greater9t                         000000EA
initccp                           000002DC
initialconfigLCD                  0000024A
main                              0000000C
mainInsertC                       00000020
msg1                              00000506
msg2                              0000051C
msg3                              00000532
msg4                              00000548
msg5                              0000055E
msg6                              00000574
msg7                              00000594
ncoin                             00000588
pdata                             0000021A
portasdigital                     0x0F
portsAsDigital                    0x0F
read1                             00000174
read2                             00000146
readbutton                        00000126
rr1                               0000018A
se1                               00000058
sep1                              000000E2
separateC                         00000050
separateT                         000000DA
set1                              0000023C
setLCDup                          0000022A
setbutton                         0000032C
show1                             0000010E
showMoney                         00000068
showd                             000000F2
showdt                            000000F4
showthanks                        000001CC
showu                             00000100
showut                            00000102
targetbank                        00000198
MPASM 5.68                      COINMAIN.ASM   8-7-2016  18:14:45         PAGE 29


SYMBOL TABLE
  LABEL                             VALUE 

time                              0000006A
ttime                             0000006C
uTcoin                            00000067
utime                             0000006B

Errors   :     0
Warnings :     0 reported,     0 suppressed
Messages :     0 reported,     0 suppressed

